target datalayout = "e-m:e-p270:32:32-p271:32:32-p272:64:64-i64:64-i128:128-f80:128-n8:16:32:64-S128"
target triple = "x86_64-pc-linux-gnu"

%struct.png_colorspace = type { i32, %struct.png_xy, %struct.png_XYZ, i16, i16 }
%struct.png_xy = type { i32, i32, i32, i32, i32, i32, i32, i32 }
%struct.png_XYZ = type { i32, i32, i32, i32, i32, i32, i32, i32, i32 }
%struct.png_color_8_struct = type { i8, i8, i8, i8, i8 }
%struct.png_color_16_struct = type { i8, i16, i16, i16, i16 }
%struct.png_struct_def = type { [1 x %struct.__jmp_buf_tag], ptr, ptr, i64, ptr, ptr, ptr, ptr, ptr, ptr, ptr, ptr, ptr, i8, i8, i32, i32, i32, i32, %struct.z_stream_s, ptr, i32, i32, i32, i32, i32, i32, i32, i32, i32, i32, i32, i32, i32, i32, i32, i32, i32, i32, i32, i32, i64, i32, i32, i32, ptr, ptr, ptr, ptr, i64, i32, i32, ptr, i16, i32, i16, i8, i8, i8, i8, i8, i8, i8, i8, i8, i8, i8, i8, i8, i8, i8, i16, i8, i32, %struct.png_color_16_struct, %struct.png_color_16_struct, ptr, i32, i32, i32, i32, ptr, ptr, ptr, ptr, ptr, ptr, %struct.png_color_8_struct, %struct.png_color_8_struct, ptr, %struct.png_color_16_struct, ptr, ptr, ptr, ptr, ptr, ptr, ptr, ptr, ptr, i32, i32, i64, i64, i64, i64, i32, i32, ptr, ptr, i32, [29 x i8], i32, ptr, ptr, i32, i32, ptr, i8, i8, i16, i16, ptr, i32, i8, ptr, ptr, ptr, ptr, ptr, ptr, ptr, i8, i32, i32, i32, i64, %struct.png_unknown_chunk_t, i64, ptr, i64, i32, i32, ptr, [4 x ptr], %struct.png_colorspace }
%struct.__jmp_buf_tag = type { [8 x i64], i32, %struct.__sigset_t }
%struct.__sigset_t = type { [16 x i64] }
%struct.z_stream_s = type { ptr, i32, i64, ptr, i32, i64, ptr, ptr, ptr, ptr, ptr, i32, i64, i64 }
%struct.png_unknown_chunk_t = type { [5 x i8], ptr, i64, i8 }

@.str.46 = private unnamed_addr constant [42 x i8] c"png_set_keep_unknown_chunks: invalid keep\00", align 1
@png_set_keep_unknown_chunks.chunks_to_ignore = internal constant [90 x i8] c"bKGD\00cHRM\00eXIf\00gAMA\00hIST\00iCCP\00iTXt\00oFFs\00pCAL\00pHYs\00sBIT\00sCAL\00sPLT\00sTER\00sRGB\00tEXt\00tIME\00zTXt\00", align 16
@.str.47 = private unnamed_addr constant [43 x i8] c"png_set_keep_unknown_chunks: no chunk list\00", align 1
@.str.48 = private unnamed_addr constant [45 x i8] c"png_set_keep_unknown_chunks: too many chunks\00", align 1

; Function Attrs: nounwind uwtable
define internal i32 @add_one_chunk(ptr noundef %0, i32 noundef %1, ptr noundef %2, i32 noundef %3) #0 {
  %5 = alloca i32, align 4
  %6 = alloca ptr, align 8
  %7 = alloca i32, align 4
  %8 = alloca ptr, align 8
  %9 = alloca i32, align 4
  %10 = alloca i32, align 4
  store ptr %0, ptr %6, align 8
  store i32 %1, ptr %7, align 4
  store ptr %2, ptr %8, align 8
  store i32 %3, ptr %9, align 4
  store i32 0, ptr %10, align 4
  br label %11

11:                                               ; preds = %27, %4
  %12 = load i32, ptr %10, align 4
  %13 = load i32, ptr %7, align 4
  %14 = icmp ult i32 %12, %13
  br i1 %14, label %15, label %32

15:                                               ; preds = %11
  %16 = load ptr, ptr %6, align 8
  %17 = load ptr, ptr %8, align 8
  %18 = call i32 @memcmp(ptr noundef %16, ptr noundef %17, i64 noundef 4) #6
  %19 = icmp eq i32 %18, 0
  br i1 %19, label %20, label %26

20:                                               ; preds = %15
  %21 = load i32, ptr %9, align 4
  %22 = trunc i32 %21 to i8
  %23 = load ptr, ptr %6, align 8
  %24 = getelementptr inbounds i8, ptr %23, i64 4
  store i8 %22, ptr %24, align 1
  %25 = load i32, ptr %7, align 4
  store i32 %25, ptr %5, align 4
  br label %46

26:                                               ; preds = %15
  br label %27

27:                                               ; preds = %26
  %28 = load i32, ptr %10, align 4
  %29 = add i32 %28, 1
  store i32 %29, ptr %10, align 4
  %30 = load ptr, ptr %6, align 8
  %31 = getelementptr inbounds i8, ptr %30, i64 5
  store ptr %31, ptr %6, align 8
  br label %11, !llvm.loop !14

32:                                               ; preds = %11
  %33 = load i32, ptr %9, align 4
  %34 = icmp ne i32 %33, 0
  br i1 %34, label %35, label %44

35:                                               ; preds = %32
  %36 = load i32, ptr %7, align 4
  %37 = add i32 %36, 1
  store i32 %37, ptr %7, align 4
  %38 = load ptr, ptr %6, align 8
  %39 = load ptr, ptr %8, align 8
  call void @llvm.memcpy.p0.p0.i64(ptr align 1 %38, ptr align 1 %39, i64 4, i1 false)
  %40 = load i32, ptr %9, align 4
  %41 = trunc i32 %40 to i8
  %42 = load ptr, ptr %6, align 8
  %43 = getelementptr inbounds i8, ptr %42, i64 4
  store i8 %41, ptr %43, align 1
  br label %44

44:                                               ; preds = %35, %32
  %45 = load i32, ptr %7, align 4
  store i32 %45, ptr %5, align 4
  br label %46

46:                                               ; preds = %44, %20
  %47 = load i32, ptr %5, align 4
  ret i32 %47
}

; Function Attrs: nounwind uwtable
define void @png_set_keep_unknown_chunks(ptr noalias noundef %0, i32 noundef %1, ptr noundef %2, i32 noundef %3) #0 {
  %5 = alloca ptr, align 8
  %6 = alloca i32, align 4
  %7 = alloca ptr, align 8
  %8 = alloca i32, align 4
  %9 = alloca ptr, align 8
  %10 = alloca i32, align 4
  %11 = alloca i32, align 4
  %12 = alloca ptr, align 8
  %13 = alloca ptr, align 8
  %14 = alloca i32, align 4
  store ptr %0, ptr %5, align 8
  store i32 %1, ptr %6, align 4
  store ptr %2, ptr %7, align 8
  store i32 %3, ptr %8, align 4
  %15 = load ptr, ptr %5, align 8
  %16 = icmp eq ptr %15, null
  br i1 %16, label %17, label %18

17:                                               ; preds = %4
  br label %183

18:                                               ; preds = %4
  %19 = load i32, ptr %6, align 4
  %20 = icmp slt i32 %19, 0
  br i1 %20, label %24, label %21

21:                                               ; preds = %18
  %22 = load i32, ptr %6, align 4
  %23 = icmp sge i32 %22, 4
  br i1 %23, label %24, label %26

24:                                               ; preds = %21, %18
  %25 = load ptr, ptr %5, align 8
  call void @png_app_error(ptr noundef %25, ptr noundef @.str.46)
  br label %183

26:                                               ; preds = %21
  %27 = load i32, ptr %8, align 4
  %28 = icmp sle i32 %27, 0
  br i1 %28, label %29, label %37

29:                                               ; preds = %26
  %30 = load i32, ptr %6, align 4
  %31 = load ptr, ptr %5, align 8
  %32 = getelementptr inbounds %struct.png_struct_def, ptr %31, i32 0, i32 115
  store i32 %30, ptr %32, align 8
  %33 = load i32, ptr %8, align 4
  %34 = icmp eq i32 %33, 0
  br i1 %34, label %35, label %36

35:                                               ; preds = %29
  br label %183

36:                                               ; preds = %29
  br label %37

37:                                               ; preds = %36, %26
  %38 = load i32, ptr %8, align 4
  %39 = icmp slt i32 %38, 0
  br i1 %39, label %40, label %41

40:                                               ; preds = %37
  store ptr @png_set_keep_unknown_chunks.chunks_to_ignore, ptr %7, align 8
  store i32 18, ptr %10, align 4
  br label %48

41:                                               ; preds = %37
  %42 = load ptr, ptr %7, align 8
  %43 = icmp eq ptr %42, null
  br i1 %43, label %44, label %46

44:                                               ; preds = %41
  %45 = load ptr, ptr %5, align 8
  call void @png_app_error(ptr noundef %45, ptr noundef @.str.47)
  br label %183

46:                                               ; preds = %41
  %47 = load i32, ptr %8, align 4
  store i32 %47, ptr %10, align 4
  br label %48

48:                                               ; preds = %46, %40
  %49 = load ptr, ptr %5, align 8
  %50 = getelementptr inbounds %struct.png_struct_def, ptr %49, i32 0, i32 116
  %51 = load i32, ptr %50, align 4
  store i32 %51, ptr %11, align 4
  %52 = load ptr, ptr %5, align 8
  %53 = getelementptr inbounds %struct.png_struct_def, ptr %52, i32 0, i32 117
  %54 = load ptr, ptr %53, align 8
  %55 = icmp eq ptr %54, null
  br i1 %55, label %56, label %57

56:                                               ; preds = %48
  store i32 0, ptr %11, align 4
  br label %57

57:                                               ; preds = %56, %48
  %58 = load i32, ptr %10, align 4
  %59 = load i32, ptr %11, align 4
  %60 = add i32 %58, %59
  %61 = icmp ugt i32 %60, 858993459
  br i1 %61, label %62, label %64

62:                                               ; preds = %57
  %63 = load ptr, ptr %5, align 8
  call void @png_app_error(ptr noundef %63, ptr noundef @.str.48)
  br label %183

64:                                               ; preds = %57
  %65 = load i32, ptr %6, align 4
  %66 = icmp ne i32 %65, 0
  br i1 %66, label %67, label %86

67:                                               ; preds = %64
  %68 = load ptr, ptr %5, align 8
  %69 = load i32, ptr %10, align 4
  %70 = load i32, ptr %11, align 4
  %71 = add i32 %69, %70
  %72 = mul i32 5, %71
  %73 = zext i32 %72 to i64
  %74 = call noalias ptr @png_malloc(ptr noundef %68, i64 noundef %73)
  store ptr %74, ptr %9, align 8
  %75 = load i32, ptr %11, align 4
  %76 = icmp ugt i32 %75, 0
  br i1 %76, label %77, label %85

77:                                               ; preds = %67
  %78 = load ptr, ptr %9, align 8
  %79 = load ptr, ptr %5, align 8
  %80 = getelementptr inbounds %struct.png_struct_def, ptr %79, i32 0, i32 117
  %81 = load ptr, ptr %80, align 8
  %82 = load i32, ptr %11, align 4
  %83 = mul i32 5, %82
  %84 = zext i32 %83 to i64
  call void @llvm.memcpy.p0.p0.i64(ptr align 1 %78, ptr align 1 %81, i64 %84, i1 false)
  br label %85

85:                                               ; preds = %77, %67
  br label %95

86:                                               ; preds = %64
  %87 = load i32, ptr %11, align 4
  %88 = icmp ugt i32 %87, 0
  br i1 %88, label %89, label %93

89:                                               ; preds = %86
  %90 = load ptr, ptr %5, align 8
  %91 = getelementptr inbounds %struct.png_struct_def, ptr %90, i32 0, i32 117
  %92 = load ptr, ptr %91, align 8
  store ptr %92, ptr %9, align 8
  br label %94

93:                                               ; preds = %86
  store ptr null, ptr %9, align 8
  br label %94

94:                                               ; preds = %93, %89
  br label %95

95:                                               ; preds = %94, %85
  %96 = load ptr, ptr %9, align 8
  %97 = icmp ne ptr %96, null
  br i1 %97, label %98, label %159

98:                                               ; preds = %95
  store i32 0, ptr %14, align 4
  br label %99

99:                                               ; preds = %113, %98
  %100 = load i32, ptr %14, align 4
  %101 = load i32, ptr %10, align 4
  %102 = icmp ult i32 %100, %101
  br i1 %102, label %103, label %116

103:                                              ; preds = %99
  %104 = load ptr, ptr %9, align 8
  %105 = load i32, ptr %11, align 4
  %106 = load ptr, ptr %7, align 8
  %107 = load i32, ptr %14, align 4
  %108 = mul i32 5, %107
  %109 = zext i32 %108 to i64
  %110 = getelementptr inbounds i8, ptr %106, i64 %109
  %111 = load i32, ptr %6, align 4
  %112 = call i32 @add_one_chunk(ptr noundef %104, i32 noundef %105, ptr noundef %110, i32 noundef %111)
  store i32 %112, ptr %11, align 4
  br label %113

113:                                              ; preds = %103
  %114 = load i32, ptr %14, align 4
  %115 = add i32 %114, 1
  store i32 %115, ptr %14, align 4
  br label %99, !llvm.loop !12

116:                                              ; preds = %99
  store i32 0, ptr %10, align 4
  store i32 0, ptr %14, align 4
  %117 = load ptr, ptr %9, align 8
  store ptr %117, ptr %13, align 8
  store ptr %117, ptr %12, align 8
  br label %118

118:                                              ; preds = %140, %116
  %119 = load i32, ptr %14, align 4
  %120 = load i32, ptr %11, align 4
  %121 = icmp ult i32 %119, %120
  br i1 %121, label %122, label %145

122:                                              ; preds = %118
  %123 = load ptr, ptr %12, align 8
  %124 = getelementptr inbounds i8, ptr %123, i64 4
  %125 = load i8, ptr %124, align 1
  %126 = icmp ne i8 %125, 0
  br i1 %126, label %127, label %139

127:                                              ; preds = %122
  %128 = load ptr, ptr %13, align 8
  %129 = load ptr, ptr %12, align 8
  %130 = icmp ne ptr %128, %129
  br i1 %130, label %131, label %134

131:                                              ; preds = %127
  %132 = load ptr, ptr %13, align 8
  %133 = load ptr, ptr %12, align 8
  call void @llvm.memcpy.p0.p0.i64(ptr align 1 %132, ptr align 1 %133, i64 5, i1 false)
  br label %134

134:                                              ; preds = %131, %127
  %135 = load ptr, ptr %13, align 8
  %136 = getelementptr inbounds i8, ptr %135, i64 5
  store ptr %136, ptr %13, align 8
  %137 = load i32, ptr %10, align 4
  %138 = add i32 %137, 1
  store i32 %138, ptr %10, align 4
  br label %139

139:                                              ; preds = %134, %122
  br label %140

140:                                              ; preds = %139
  %141 = load i32, ptr %14, align 4
  %142 = add i32 %141, 1
  store i32 %142, ptr %14, align 4
  %143 = load ptr, ptr %12, align 8
  %144 = getelementptr inbounds i8, ptr %143, i64 5
  store ptr %144, ptr %12, align 8
  br label %118, !llvm.loop !13

145:                                              ; preds = %118
  %146 = load i32, ptr %10, align 4
  %147 = icmp eq i32 %146, 0
  br i1 %147, label %148, label %158

148:                                              ; preds = %145
  %149 = load ptr, ptr %5, align 8
  %150 = getelementptr inbounds %struct.png_struct_def, ptr %149, i32 0, i32 117
  %151 = load ptr, ptr %150, align 8
  %152 = load ptr, ptr %9, align 8
  %153 = icmp ne ptr %151, %152
  br i1 %153, label %154, label %157

154:                                              ; preds = %148
  %155 = load ptr, ptr %5, align 8
  %156 = load ptr, ptr %9, align 8
  call void @png_free(ptr noundef %155, ptr noundef %156)
  br label %157

157:                                              ; preds = %154, %148
  store ptr null, ptr %9, align 8
  br label %158

158:                                              ; preds = %157, %145
  br label %160

159:                                              ; preds = %95
  store i32 0, ptr %10, align 4
  br label %160

160:                                              ; preds = %159, %158
  %161 = load i32, ptr %10, align 4
  %162 = load ptr, ptr %5, align 8
  %163 = getelementptr inbounds %struct.png_struct_def, ptr %162, i32 0, i32 116
  store i32 %161, ptr %163, align 4
  %164 = load ptr, ptr %5, align 8
  %165 = getelementptr inbounds %struct.png_struct_def, ptr %164, i32 0, i32 117
  %166 = load ptr, ptr %165, align 8
  %167 = load ptr, ptr %9, align 8
  %168 = icmp ne ptr %166, %167
  br i1 %168, label %169, label %183

169:                                              ; preds = %160
  %170 = load ptr, ptr %5, align 8
  %171 = getelementptr inbounds %struct.png_struct_def, ptr %170, i32 0, i32 117
  %172 = load ptr, ptr %171, align 8
  %173 = icmp ne ptr %172, null
  br i1 %173, label %174, label %179

174:                                              ; preds = %169
  %175 = load ptr, ptr %5, align 8
  %176 = load ptr, ptr %5, align 8
  %177 = getelementptr inbounds %struct.png_struct_def, ptr %176, i32 0, i32 117
  %178 = load ptr, ptr %177, align 8
  call void @png_free(ptr noundef %175, ptr noundef %178)
  br label %179

179:                                              ; preds = %174, %169
  %180 = load ptr, ptr %9, align 8
  %181 = load ptr, ptr %5, align 8
  %182 = getelementptr inbounds %struct.png_struct_def, ptr %181, i32 0, i32 117
  store ptr %180, ptr %182, align 8
  br label %183

183:                                              ; preds = %179, %160, %62, %44, %35, %24, %17
  ret void
}